target datalayout = "e-m:e-p270:32:32-p271:32:32-p272:64:64-i64:64-i128:128-f80:128-n8:16:32:64-S128"
target triple = "x86_64-pc-linux-gnu"

%struct.exr_attr_string_vector_t = type { i32, i32, ptr }
%struct.exr_attr_string_t = type { i32, i32, ptr }
%struct._priv_exr_context_t = type { i8, i8, i8, i8, i8, i8, i8, i8, %struct.exr_attr_string_t, %struct.exr_attr_string_t, ptr, ptr, ptr, ptr, ptr, ptr, ptr, ptr, i32, i32, i32, i32, i32, float, ptr, ptr, ptr, i64, ptr, ptr, i64, i32, i32, i32, i32, %struct._priv_exr_part_t, ptr, ptr, %struct.exr_attribute_list, %union.pthread_mutex_t, i8, i8, [2 x i8], i32 }
%struct._priv_exr_part_t = type { i32, i32, %struct.exr_attribute_list, ptr, ptr, ptr, ptr, ptr, ptr, ptr, ptr, ptr, ptr, ptr, ptr, ptr, ptr, %struct.exr_attr_box2i_t, %struct.exr_attr_box2i_t, i32, i32, i32, float, i32, i32, ptr, ptr, ptr, ptr, i64, i16, i16, i32, i64, i64 }
%struct.exr_attr_box2i_t = type { %struct.exr_attr_v2i_t, %struct.exr_attr_v2i_t }
%struct.exr_attr_v2i_t = type { i32, i32 }
%struct.exr_attribute_list = type { i32, i32, ptr, ptr }
%union.pthread_mutex_t = type { %struct.__pthread_mutex_s }
%struct.__pthread_mutex_s = type { i32, i32, i32, i32, i32, i16, i16, %struct.__pthread_internal_list }
%struct.__pthread_internal_list = type { ptr, ptr }

; Function Attrs: nounwind uwtable
define hidden i32 @exr_attr_string_vector_destroy(ptr noundef %0, ptr noundef %1) #0 {
  %3 = alloca i32, align 4
  %4 = alloca ptr, align 8
  %5 = alloca ptr, align 8
  %6 = alloca %struct.exr_attr_string_vector_t, align 8
  %7 = alloca ptr, align 8
  %8 = alloca i32, align 4
  store ptr %0, ptr %4, align 8, !tbaa !3
  store ptr %1, ptr %5, align 8, !tbaa !8
  %9 = load ptr, ptr %4, align 8, !tbaa !3
  %10 = icmp ne ptr %9, null
  br i1 %10, label %12, label %11

11:                                               ; preds = %2
  store i32 2, ptr %3, align 4
  br label %55

12:                                               ; preds = %2
  %13 = load ptr, ptr %5, align 8, !tbaa !8
  %14 = icmp ne ptr %13, null
  br i1 %14, label %15, label %54

15:                                               ; preds = %12
  call void @llvm.lifetime.start.p0(i64 16, ptr %6) #6
  call void @llvm.memset.p0.i64(ptr align 8 %6, i8 0, i64 16, i1 false)
  %16 = load ptr, ptr %5, align 8, !tbaa !8
  %17 = getelementptr inbounds nuw %struct.exr_attr_string_vector_t, ptr %16, i32 0, i32 1
  %18 = load i32, ptr %17, align 4, !tbaa !34
  %19 = icmp sgt i32 %18, 0
  br i1 %19, label %20, label %52

20:                                               ; preds = %15
  call void @llvm.lifetime.start.p0(i64 8, ptr %7) #6
  %21 = load ptr, ptr %5, align 8, !tbaa !8
  %22 = getelementptr inbounds nuw %struct.exr_attr_string_vector_t, ptr %21, i32 0, i32 2
  %23 = load ptr, ptr %22, align 8, !tbaa !30
  %24 = ptrtoint ptr %23 to i64
  %25 = inttoptr i64 %24 to ptr
  store ptr %25, ptr %7, align 8, !tbaa !8
  call void @llvm.lifetime.start.p0(i64 4, ptr %8) #6
  store i32 0, ptr %8, align 4, !tbaa !9
  br label %26

26:                                               ; preds = %40, %20
  %27 = load i32, ptr %8, align 4, !tbaa !9
  %28 = load ptr, ptr %5, align 8, !tbaa !8
  %29 = getelementptr inbounds nuw %struct.exr_attr_string_vector_t, ptr %28, i32 0, i32 0
  %30 = load i32, ptr %29, align 8, !tbaa !33
  %31 = icmp slt i32 %27, %30
  br i1 %31, label %33, label %32

32:                                               ; preds = %26
  call void @llvm.lifetime.end.p0(i64 4, ptr %8) #6
  br label %43

33:                                               ; preds = %26
  %34 = load ptr, ptr %4, align 8, !tbaa !3
  %35 = load ptr, ptr %7, align 8, !tbaa !8
  %36 = load i32, ptr %8, align 4, !tbaa !9
  %37 = sext i32 %36 to i64
  %38 = getelementptr inbounds %struct.exr_attr_string_t, ptr %35, i64 %37
  %39 = call i32 @exr_attr_string_destroy(ptr noundef %34, ptr noundef %38)
  br label %40

40:                                               ; preds = %33
  %41 = load i32, ptr %8, align 4, !tbaa !9
  %42 = add nsw i32 %41, 1
  store i32 %42, ptr %8, align 4, !tbaa !9
  br label %26, !llvm.loop !39

43:                                               ; preds = %32
  %44 = load ptr, ptr %7, align 8, !tbaa !8
  %45 = icmp ne ptr %44, null
  br i1 %45, label %46, label %51

46:                                               ; preds = %43
  %47 = load ptr, ptr %4, align 8, !tbaa !3
  %48 = getelementptr inbounds nuw %struct._priv_exr_context_t, ptr %47, i32 0, i32 17
  %49 = load ptr, ptr %48, align 8, !tbaa !40
  %50 = load ptr, ptr %7, align 8, !tbaa !8
  call void %49(ptr noundef %50)
  br label %51

51:                                               ; preds = %46, %43
  call void @llvm.lifetime.end.p0(i64 8, ptr %7) #6
  br label %52

52:                                               ; preds = %51, %15
  %53 = load ptr, ptr %5, align 8, !tbaa !8
  call void @llvm.memcpy.p0.p0.i64(ptr align 8 %53, ptr align 8 %6, i64 16, i1 false), !tbaa.struct !28
  call void @llvm.lifetime.end.p0(i64 16, ptr %6) #6
  br label %54

54:                                               ; preds = %52, %12
  store i32 0, ptr %3, align 4
  br label %55

55:                                               ; preds = %54, %11
  %56 = load i32, ptr %3, align 4
  ret i32 %56
}