; Function Attrs: nounwind uwtable
define hidden range(i32 0, 3) i32 @exr_attr_string_vector_destroy(ptr noundef %0, ptr noundef %1) local_unnamed_addr #0 {
  %.not = icmp eq ptr %0, null
  br i1 %.not, label %22, label %3

3:                                                ; preds = %2
  %.not18 = icmp eq ptr %1, null
  br i1 %.not18, label %22, label %4

4:                                                ; preds = %3
  %5 = getelementptr inbounds nuw i8, ptr %1, i64 4
  %6 = load i32, ptr %5, align 4, !tbaa !28
  %7 = icmp sgt i32 %6, 0
  br i1 %7, label %8, label %21

8:                                                ; preds = %4
  %9 = getelementptr inbounds nuw i8, ptr %1, i64 8
  %10 = load ptr, ptr %9, align 8, !tbaa !24
  %11 = load i32, ptr %1, align 8, !tbaa !27
  %12 = icmp sgt i32 %11, 0
  br i1 %12, label %.lr.ph, label %._crit_edge

._crit_edge:                                      ; preds = %.lr.ph, %8
  %.not19 = icmp eq ptr %10, null
  br i1 %.not19, label %21, label %18

.lr.ph:                                           ; preds = %8, %.lr.ph
  %indvars.iv = phi i64 [ %indvars.iv.next, %.lr.ph ], [ 0, %8 ]
  %13 = getelementptr inbounds nuw %struct.exr_attr_string_t, ptr %10, i64 %indvars.iv
  %14 = tail call i32 @exr_attr_string_destroy(ptr noundef nonnull %0, ptr noundef %13) #5
  %indvars.iv.next = add nuw nsw i64 %indvars.iv, 1
  %15 = load i32, ptr %1, align 8, !tbaa !27
  %16 = sext i32 %15 to i64
  %17 = icmp slt i64 %indvars.iv.next, %16
  br i1 %17, label %.lr.ph, label %._crit_edge, !llvm.loop !31

18:                                               ; preds = %._crit_edge
  %19 = getelementptr inbounds nuw i8, ptr %0, i64 96
  %20 = load ptr, ptr %19, align 8, !tbaa !32
  tail call void %20(ptr noundef nonnull %10) #5
  br label %21

21:                                               ; preds = %._crit_edge, %18, %4
  tail call void @llvm.memset.p0.i64(ptr noundef nonnull align 8 dereferenceable(16) %1, i8 0, i64 16, i1 false)
  br label %22

22:                                               ; preds = %3, %21, %2
  %.014 = phi i32 [ 2, %2 ], [ 0, %21 ], [ 0, %3 ]
  ret i32 %.014
}